(dp1
S'mx140-gobernadores'
p2
V843933964574310401
p3
sS'mx140-pri'
p4
V843961875519954945
p5
sS'mx140-prd'
p6
V843949158738354177
p7
sS'mx140-ejecutivo'
p8
V843974233634078720
p9
sS'mx140-pan'
p10
V843969582239027200
p11
sS'mx140-opinion'
p12
V843974250356768768
p13
sS'mx140-senadores'
p14
V843973272618352642
p15
sS'mx140-diputados'
p16
V843973320286519296
p17
s.