(dp1
S'mx140-gobernadores'
p2
V846952022087811074
p3
sS'mx140-pri'
p4
V846937816915324928
p5
sS'mx140-prd'
p6
V846933770288726017
p7
sS'mx140-ejecutivo'
p8
V846969390000209924
p9
sS'mx140-pan'
p10
V846948153672773632
p11
sS'mx140-opinion'
p12
V846992073928658945
p13
sS'mx140-senadores'
p14
V846977808488386560
p15
sS'mx140-diputados'
p16
V846991274972499968
p17
s.